; Function Attrs: mustprogress nofree norecurse nosync nounwind willreturn memory(write, argmem: readwrite, inaccessiblemem: none) uwtable
define void @_ZN19OpenColorIO_v2_4dev19ColorSpaceTransform13setDataBypassEb(ptr nocapture noundef nonnull readonly align 8 dereferenceable(16) %this, i1 noundef zeroext %bypass) local_unnamed_addr #6 align 2 personality ptr @__gxx_personality_v0 {
entry:
  %frombool = zext i1 %bypass to i8
  %m_impl.i = getelementptr inbounds i8, ptr %this, i64 8
  %0 = load ptr, ptr %m_impl.i, align 8
  %m_dataBypass = getelementptr inbounds i8, ptr %0, i64 72
  store i8 %frombool, ptr %m_dataBypass, align 8
  ret void
}